; ModuleID = '19/542.c'
source_filename = "19/542.c"
target datalayout = "e-m:e-p270:32:32-p271:32:32-p272:64:64-i64:64-f80:128-n8:16:32:64-S128"
target triple = "x86_64-pc-linux-gnu"

@.str = private unnamed_addr constant [3 x i8] c"%s\00", align 1
@.str.1 = private unnamed_addr constant [2 x i8] c" \00", align 1

; Function Attrs: noinline nounwind uwtable
define dso_local void @main() #0 {
  %1 = alloca [300 x i8], align 16
  %2 = alloca [100 x i8], align 16
  %3 = alloca [100 x i8], align 16
  %4 = alloca i8*, align 8
  %5 = alloca i8*, align 8
  %6 = bitcast [300 x i8]* %1 to i8*
  call void @llvm.memset.p0i8.i64(i8* align 16 %6, i8 0, i64 300, i1 false)
  %7 = getelementptr inbounds [300 x i8], [300 x i8]* %1, i64 0, i64 0
  %8 = call i32 (i8*, ...) bitcast (i32 (...)* @gets to i32 (i8*, ...)*)(i8* %7)
  %9 = getelementptr inbounds [100 x i8], [100 x i8]* %2, i64 0, i64 0
  %10 = call i32 (i8*, ...) bitcast (i32 (...)* @gets to i32 (i8*, ...)*)(i8* %9)
  %11 = getelementptr inbounds [100 x i8], [100 x i8]* %3, i64 0, i64 0
  %12 = call i32 (i8*, ...) bitcast (i32 (...)* @gets to i32 (i8*, ...)*)(i8* %11)
  %13 = getelementptr inbounds [300 x i8], [300 x i8]* %1, i64 0, i64 0
  store i8* %13, i8** %4, align 8
  %14 = getelementptr inbounds [300 x i8], [300 x i8]* %1, i64 0, i64 0
  store i8* %14, i8** %5, align 8
  br label %15

15:                                               ; preds = %20, %0
  %16 = load i8*, i8** %4, align 8
  %17 = load i8, i8* %16, align 1
  %18 = sext i8 %17 to i32
  %19 = icmp ne i32 %18, 32
  br i1 %19, label %20, label %23

20:                                               ; preds = %15
  %21 = load i8*, i8** %4, align 8
  %22 = getelementptr inbounds i8, i8* %21, i32 1
  store i8* %22, i8** %4, align 8
  br label %15

23:                                               ; preds = %15
  %24 = load i8*, i8** %4, align 8
  store i8 0, i8* %24, align 1
  %25 = load i8*, i8** %5, align 8
  %26 = getelementptr inbounds [100 x i8], [100 x i8]* %2, i64 0, i64 0
  %27 = call i32 @strcmp(i8* %25, i8* %26) #4
  %28 = icmp eq i32 %27, 0
  br i1 %28, label %29, label %32

29:                                               ; preds = %23
  %30 = getelementptr inbounds [100 x i8], [100 x i8]* %3, i64 0, i64 0
  %31 = call i32 (i8*, ...) @printf(i8* getelementptr inbounds ([3 x i8], [3 x i8]* @.str, i64 0, i64 0), i8* %30)
  br label %35

32:                                               ; preds = %23
  %33 = load i8*, i8** %5, align 8
  %34 = call i32 (i8*, ...) @printf(i8* getelementptr inbounds ([3 x i8], [3 x i8]* @.str, i64 0, i64 0), i8* %33)
  br label %35

35:                                               ; preds = %32, %29
  %36 = load i8*, i8** %4, align 8
  %37 = getelementptr inbounds i8, i8* %36, i32 1
  store i8* %37, i8** %4, align 8
  %38 = load i8*, i8** %4, align 8
  store i8* %38, i8** %5, align 8
  br label %39

39:                                               ; preds = %73, %35
  %40 = load i8*, i8** %4, align 8
  %41 = load i8, i8* %40, align 1
  %42 = sext i8 %41 to i32
  %43 = icmp ne i32 %42, 0
  br i1 %43, label %44, label %74

44:                                               ; preds = %39
  %45 = load i8*, i8** %4, align 8
  %46 = getelementptr inbounds i8, i8* %45, i32 1
  store i8* %46, i8** %4, align 8
  %47 = load i8*, i8** %4, align 8
  %48 = load i8, i8* %47, align 1
  %49 = sext i8 %48 to i32
  %50 = icmp eq i32 %49, 32
  br i1 %50, label %56, label %51

51:                                               ; preds = %44
  %52 = load i8*, i8** %4, align 8
  %53 = load i8, i8* %52, align 1
  %54 = sext i8 %53 to i32
  %55 = icmp eq i32 %54, 0
  br i1 %55, label %56, label %73

56:                                               ; preds = %51, %44
  %57 = load i8*, i8** %4, align 8
  store i8 0, i8* %57, align 1
  %58 = call i32 (i8*, ...) @printf(i8* getelementptr inbounds ([2 x i8], [2 x i8]* @.str.1, i64 0, i64 0))
  %59 = load i8*, i8** %5, align 8
  %60 = getelementptr inbounds [100 x i8], [100 x i8]* %2, i64 0, i64 0
  %61 = call i32 @strcmp(i8* %59, i8* %60) #4
  %62 = icmp eq i32 %61, 0
  br i1 %62, label %63, label %66

63:                                               ; preds = %56
  %64 = getelementptr inbounds [100 x i8], [100 x i8]* %3, i64 0, i64 0
  %65 = call i32 (i8*, ...) @printf(i8* getelementptr inbounds ([3 x i8], [3 x i8]* @.str, i64 0, i64 0), i8* %64)
  br label %69

66:                                               ; preds = %56
  %67 = load i8*, i8** %5, align 8
  %68 = call i32 (i8*, ...) @printf(i8* getelementptr inbounds ([3 x i8], [3 x i8]* @.str, i64 0, i64 0), i8* %67)
  br label %69

69:                                               ; preds = %66, %63
  %70 = load i8*, i8** %4, align 8
  %71 = getelementptr inbounds i8, i8* %70, i32 1
  store i8* %71, i8** %4, align 8
  %72 = load i8*, i8** %4, align 8
  store i8* %72, i8** %5, align 8
  br label %73

73:                                               ; preds = %69, %51
  br label %39

74:                                               ; preds = %39
  ret void
}

; Function Attrs: argmemonly nounwind willreturn
declare void @llvm.memset.p0i8.i64(i8* nocapture writeonly, i8, i64, i1 immarg) #1

declare dso_local i32 @gets(...) #2

; Function Attrs: nounwind readonly
declare dso_local i32 @strcmp(i8*, i8*) #3

declare dso_local i32 @printf(i8*, ...) #2


!llvm.module.flags = !{!0}
!llvm.ident = !{!1}

!0 = !{i32 1, !"wchar_size", i32 4}
!1 = !{!"clang version 10.0.0-4ubuntu1 "}
