; ModuleID = 'source-C-CXX/18/542.c'
source_filename = "source-C-CXX/18/542.c"
target datalayout = "e-m:e-p270:32:32-p271:32:32-p272:64:64-i64:64-f80:128-n8:16:32:64-S128"
target triple = "x86_64-pc-linux-gnu"

@.str = private unnamed_addr constant [3 x i8] c"%s\00", align 1

; Function Attrs: nounwind sspstrong uwtable
define dso_local void @main() local_unnamed_addr #0 {
  %1 = alloca [300 x i8], align 16
  %2 = alloca [100 x i8], align 16
  %3 = alloca [100 x i8], align 16
  %4 = getelementptr inbounds [300 x i8], [300 x i8]* %1, i64 0, i64 0
  call void @llvm.lifetime.start.p0i8(i64 300, i8* nonnull %4) #7
  call void @llvm.memset.p0i8.i64(i8* noundef nonnull align 16 dereferenceable(300) %4, i8 0, i64 300, i1 false)
  %5 = getelementptr inbounds [100 x i8], [100 x i8]* %2, i64 0, i64 0
  call void @llvm.lifetime.start.p0i8(i64 100, i8* nonnull %5) #7
  %6 = getelementptr inbounds [100 x i8], [100 x i8]* %3, i64 0, i64 0
  call void @llvm.lifetime.start.p0i8(i64 100, i8* nonnull %6) #7
  %7 = call i32 (i8*, ...) bitcast (i32 (...)* @gets to i32 (i8*, ...)*)(i8* nonnull %4) #7
  %8 = call i32 (i8*, ...) bitcast (i32 (...)* @gets to i32 (i8*, ...)*)(i8* nonnull %5) #7
  %9 = call i32 (i8*, ...) bitcast (i32 (...)* @gets to i32 (i8*, ...)*)(i8* nonnull %6) #7
  br label %10

10:                                               ; preds = %10, %0
  %11 = phi i8* [ %4, %0 ], [ %14, %10 ]
  %12 = load i8, i8* %11, align 1, !tbaa !5
  %13 = icmp eq i8 %12, 32
  %14 = getelementptr inbounds i8, i8* %11, i64 1
  br i1 %13, label %15, label %10, !llvm.loop !8

15:                                               ; preds = %10
  store i8 0, i8* %11, align 1, !tbaa !5
  %16 = call i32 @strcmp(i8* noundef nonnull %4, i8* noundef nonnull %5) #8
  %17 = icmp eq i32 %16, 0
  %18 = select i1 %17, i8* %6, i8* %4
  %19 = call i32 (i8*, ...) @printf(i8* nonnull dereferenceable(1) getelementptr inbounds ([3 x i8], [3 x i8]* @.str, i64 0, i64 0), i8* nonnull %18)
  %20 = load i8, i8* %14, align 1, !tbaa !5
  %21 = icmp eq i8 %20, 0
  br i1 %21, label %43, label %22

22:                                               ; preds = %15, %38
  %23 = phi i8* [ %41, %38 ], [ %14, %15 ]
  %24 = phi i8* [ %40, %38 ], [ %14, %15 ]
  %25 = getelementptr inbounds i8, i8* %24, i64 1
  %26 = load i8, i8* %25, align 1, !tbaa !5
  switch i8 %26, label %38 [
    i8 32, label %27
    i8 0, label %27
  ]

27:                                               ; preds = %22, %22
  store i8 0, i8* %25, align 1, !tbaa !5
  %28 = call i32 @putchar(i32 32)
  %29 = call i32 @strcmp(i8* noundef nonnull dereferenceable(1) %23, i8* noundef nonnull %5) #8
  %30 = icmp eq i32 %29, 0
  br i1 %30, label %31, label %33

31:                                               ; preds = %27
  %32 = call i32 (i8*, ...) @printf(i8* nonnull dereferenceable(1) getelementptr inbounds ([3 x i8], [3 x i8]* @.str, i64 0, i64 0), i8* nonnull %6)
  br label %35

33:                                               ; preds = %27
  %34 = call i32 (i8*, ...) @printf(i8* nonnull dereferenceable(1) getelementptr inbounds ([3 x i8], [3 x i8]* @.str, i64 0, i64 0), i8* %23)
  br label %35

35:                                               ; preds = %33, %31
  %36 = getelementptr inbounds i8, i8* %24, i64 2
  %37 = load i8, i8* %36, align 1, !tbaa !5
  br label %38

38:                                               ; preds = %22, %35
  %39 = phi i8 [ %37, %35 ], [ %26, %22 ]
  %40 = phi i8* [ %36, %35 ], [ %25, %22 ]
  %41 = phi i8* [ %36, %35 ], [ %23, %22 ]
  %42 = icmp eq i8 %39, 0
  br i1 %42, label %43, label %22, !llvm.loop !10

43:                                               ; preds = %38, %15
  call void @llvm.lifetime.end.p0i8(i64 100, i8* nonnull %6) #7
  call void @llvm.lifetime.end.p0i8(i64 100, i8* nonnull %5) #7
  call void @llvm.lifetime.end.p0i8(i64 300, i8* nonnull %4) #7
  ret void
}

; Function Attrs: argmemonly mustprogress nofree nosync nounwind willreturn
declare void @llvm.lifetime.start.p0i8(i64 immarg, i8* nocapture) #1

; Function Attrs: argmemonly mustprogress nofree nounwind willreturn writeonly
declare void @llvm.memset.p0i8.i64(i8* nocapture writeonly, i8, i64, i1 immarg) #2

declare i32 @gets(...) local_unnamed_addr #3

; Function Attrs: argmemonly mustprogress nofree nounwind readonly willreturn
declare i32 @strcmp(i8* nocapture, i8* nocapture) local_unnamed_addr #4

; Function Attrs: nofree nounwind
declare noundef i32 @printf(i8* nocapture noundef readonly, ...) local_unnamed_addr #5

; Function Attrs: argmemonly mustprogress nofree nosync nounwind willreturn
declare void @llvm.lifetime.end.p0i8(i64 immarg, i8* nocapture) #1

; Function Attrs: nofree nounwind
declare noundef i32 @putchar(i32 noundef) local_unnamed_addr #6


!llvm.module.flags = !{!0, !1, !2, !3}
!llvm.ident = !{!4}

!0 = !{i32 1, !"wchar_size", i32 4}
!1 = !{i32 7, !"PIC Level", i32 2}
!2 = !{i32 7, !"PIE Level", i32 2}
!3 = !{i32 7, !"uwtable", i32 1}
!4 = !{!"clang version 13.0.0"}
!5 = !{!6, !6, i64 0}
!6 = !{!"omnipotent char", !7, i64 0}
!7 = !{!"Simple C/C++ TBAA"}
!8 = distinct !{!8, !9}
!9 = !{!"llvm.loop.mustprogress"}
!10 = distinct !{!10, !9}
